target datalayout = "e-m:e-p270:32:32-p271:32:32-p272:64:64-i64:64-i128:128-f80:128-n8:16:32:64-S128"
target triple = "x86_64-pc-linux-gnu"

%struct._zval_struct = type { %union._zend_value, %union.anon.9, %union.anon.12 }
%union._zend_value = type { i64 }
%union.anon.9 = type { i32 }
%union.anon.12 = type { i32 }
%union._zend_function = type { %struct._zend_op_array }
%struct._zend_op_array = type { i8, [3 x i8], i32, ptr, ptr, ptr, i32, i32, ptr, ptr, ptr, ptr, i32, ptr, i32, i32, i32, ptr, ptr, ptr, ptr, ptr, i32, i32, ptr, ptr, ptr, i32, i32, i32, i32, ptr, ptr, [6 x ptr] }
%struct.anon.13 = type { i8, [3 x i8], i32, ptr, ptr, ptr, i32, i32, ptr, ptr, ptr, ptr, i32, ptr }
%struct.variance_obligation = type { i32, %union.anon.14 }
%union.anon.14 = type { %struct.anon.15 }
%struct.anon.15 = type { %union._zend_function, %union._zend_function, ptr, ptr }

; Function Attrs: alwaysinline nounwind uwtable
define internal ptr @zend_hash_next_index_insert_ptr(ptr noundef %0, ptr noundef %1) #3 {
  %3 = alloca ptr, align 8
  %4 = alloca ptr, align 8
  %5 = alloca ptr, align 8
  %6 = alloca %struct._zval_struct, align 8
  %7 = alloca ptr, align 8
  %8 = alloca i32, align 4
  store ptr %0, ptr %4, align 8, !tbaa !47
  store ptr %1, ptr %5, align 8, !tbaa !16
  call void @llvm.lifetime.start.p0(i64 16, ptr %6) #19
  call void @llvm.lifetime.start.p0(i64 8, ptr %7) #19
  br label %9

9:                                                ; preds = %2
  %10 = load ptr, ptr %5, align 8, !tbaa !16
  %11 = getelementptr inbounds nuw %struct._zval_struct, ptr %6, i32 0, i32 0
  store ptr %10, ptr %11, align 8, !tbaa !46
  %12 = getelementptr inbounds nuw %struct._zval_struct, ptr %6, i32 0, i32 1
  store i32 13, ptr %12, align 8, !tbaa !46
  br label %13

13:                                               ; preds = %9
  br label %14

14:                                               ; preds = %13
  %15 = load ptr, ptr %4, align 8, !tbaa !47
  %16 = call ptr @zend_hash_next_index_insert(ptr noundef %15, ptr noundef %6)
  store ptr %16, ptr %7, align 8, !tbaa !51
  %17 = load ptr, ptr %7, align 8, !tbaa !51
  %18 = icmp ne ptr %17, null
  br i1 %18, label %19, label %27

19:                                               ; preds = %14
  %20 = load ptr, ptr %7, align 8, !tbaa !51
  %21 = getelementptr inbounds nuw %struct._zval_struct, ptr %20, i32 0, i32 0
  %22 = load ptr, ptr %21, align 8, !tbaa !46
  %23 = icmp ne ptr %22, null
  call void @llvm.assume(i1 %23)
  %24 = load ptr, ptr %7, align 8, !tbaa !51
  %25 = getelementptr inbounds nuw %struct._zval_struct, ptr %24, i32 0, i32 0
  %26 = load ptr, ptr %25, align 8, !tbaa !46
  store ptr %26, ptr %3, align 8
  store i32 1, ptr %8, align 4
  br label %28

27:                                               ; preds = %14
  store ptr null, ptr %3, align 8
  store i32 1, ptr %8, align 4
  br label %28

28:                                               ; preds = %27, %19
  call void @llvm.lifetime.end.p0(i64 8, ptr %7) #19
  call void @llvm.lifetime.end.p0(i64 16, ptr %6) #19
  %29 = load ptr, ptr %3, align 8
  ret ptr %29
}

; Function Attrs: nounwind uwtable
define internal void @add_compatibility_obligation(ptr noundef %0, ptr noundef %1, ptr noundef %2, ptr noundef %3, ptr noundef %4) #0 {
  %6 = alloca ptr, align 8
  %7 = alloca ptr, align 8
  %8 = alloca ptr, align 8
  %9 = alloca ptr, align 8
  %10 = alloca ptr, align 8
  %11 = alloca ptr, align 8
  %12 = alloca ptr, align 8
  store ptr %0, ptr %6, align 8, !tbaa !8
  store ptr %1, ptr %7, align 8, !tbaa !73
  store ptr %2, ptr %8, align 8, !tbaa !8
  store ptr %3, ptr %9, align 8, !tbaa !73
  store ptr %4, ptr %10, align 8, !tbaa !8
  call void @llvm.lifetime.start.p0(i64 8, ptr %11) #19
  %13 = load ptr, ptr %6, align 8, !tbaa !8
  %14 = call ptr @get_or_init_obligations_for_class(ptr noundef %13)
  store ptr %14, ptr %11, align 8, !tbaa !47
  call void @llvm.lifetime.start.p0(i64 8, ptr %12) #19
  %15 = call noalias ptr @_emalloc_640()
  store ptr %15, ptr %12, align 8, !tbaa !16
  %16 = load ptr, ptr %12, align 8, !tbaa !16
  %17 = getelementptr inbounds nuw %struct.variance_obligation, ptr %16, i32 0, i32 0
  store i32 1, ptr %17, align 8, !tbaa !17
  %18 = load ptr, ptr %7, align 8, !tbaa !73
  %19 = getelementptr inbounds nuw %struct.anon.13, ptr %18, i32 0, i32 0
  %20 = load i8, ptr %19, align 8, !tbaa !46
  %21 = zext i8 %20 to i32
  %22 = icmp eq i32 %21, 1
  br i1 %22, label %23, label %28

23:                                               ; preds = %5
  %24 = load ptr, ptr %12, align 8, !tbaa !16
  %25 = getelementptr inbounds nuw %struct.variance_obligation, ptr %24, i32 0, i32 1
  %26 = getelementptr inbounds nuw %struct.anon.15, ptr %25, i32 0, i32 1
  %27 = load ptr, ptr %7, align 8, !tbaa !73
  call void @llvm.memcpy.p0.p0.i64(ptr align 8 %26, ptr align 8 %27, i64 160, i1 false)
  br label %33

28:                                               ; preds = %5
  %29 = load ptr, ptr %12, align 8, !tbaa !16
  %30 = getelementptr inbounds nuw %struct.variance_obligation, ptr %29, i32 0, i32 1
  %31 = getelementptr inbounds nuw %struct.anon.15, ptr %30, i32 0, i32 1
  %32 = load ptr, ptr %7, align 8, !tbaa !73
  call void @llvm.memcpy.p0.p0.i64(ptr align 8 %31, ptr align 8 %32, i64 256, i1 false)
  br label %33

33:                                               ; preds = %28, %23
  %34 = load ptr, ptr %9, align 8, !tbaa !73
  %35 = getelementptr inbounds nuw %struct.anon.13, ptr %34, i32 0, i32 0
  %36 = load i8, ptr %35, align 8, !tbaa !46
  %37 = zext i8 %36 to i32
  %38 = icmp eq i32 %37, 1
  br i1 %38, label %39, label %44

39:                                               ; preds = %33
  %40 = load ptr, ptr %12, align 8, !tbaa !16
  %41 = getelementptr inbounds nuw %struct.variance_obligation, ptr %40, i32 0, i32 1
  %42 = getelementptr inbounds nuw %struct.anon.15, ptr %41, i32 0, i32 0
  %43 = load ptr, ptr %9, align 8, !tbaa !73
  call void @llvm.memcpy.p0.p0.i64(ptr align 8 %42, ptr align 8 %43, i64 160, i1 false)
  br label %49

44:                                               ; preds = %33
  %45 = load ptr, ptr %12, align 8, !tbaa !16
  %46 = getelementptr inbounds nuw %struct.variance_obligation, ptr %45, i32 0, i32 1
  %47 = getelementptr inbounds nuw %struct.anon.15, ptr %46, i32 0, i32 0
  %48 = load ptr, ptr %9, align 8, !tbaa !73
  call void @llvm.memcpy.p0.p0.i64(ptr align 8 %47, ptr align 8 %48, i64 256, i1 false)
  br label %49

49:                                               ; preds = %44, %39
  %50 = load ptr, ptr %8, align 8, !tbaa !8
  %51 = load ptr, ptr %12, align 8, !tbaa !16
  %52 = getelementptr inbounds nuw %struct.variance_obligation, ptr %51, i32 0, i32 1
  %53 = getelementptr inbounds nuw %struct.anon.15, ptr %52, i32 0, i32 2
  store ptr %50, ptr %53, align 8, !tbaa !46
  %54 = load ptr, ptr %10, align 8, !tbaa !8
  %55 = load ptr, ptr %12, align 8, !tbaa !16
  %56 = getelementptr inbounds nuw %struct.variance_obligation, ptr %55, i32 0, i32 1
  %57 = getelementptr inbounds nuw %struct.anon.15, ptr %56, i32 0, i32 3
  store ptr %54, ptr %57, align 8, !tbaa !46
  %58 = load ptr, ptr %11, align 8, !tbaa !47
  %59 = load ptr, ptr %12, align 8, !tbaa !16
  %60 = call ptr @zend_hash_next_index_insert_ptr(ptr noundef %58, ptr noundef %59)
  call void @llvm.lifetime.end.p0(i64 8, ptr %12) #19
  call void @llvm.lifetime.end.p0(i64 8, ptr %11) #19
  ret void
}