; Function Attrs: nounwind uwtable
define internal fastcc void @add_compatibility_obligation(ptr noundef %0, ptr noundef readonly captures(none) %1, ptr noundef %2, ptr noundef readonly captures(none) %3, ptr noundef %4) unnamed_addr #2 {
  %6 = alloca %struct._zval_struct, align 8
  %7 = tail call fastcc ptr @get_or_init_obligations_for_class(ptr noundef %0)
  %8 = tail call noalias ptr @_emalloc_640() #17
  store i32 1, ptr %8, align 8, !tbaa !4
  %9 = load i8, ptr %1, align 8, !tbaa !21
  %10 = icmp eq i8 %9, 1
  %11 = getelementptr inbounds nuw i8, ptr %8, i64 264
  br i1 %10, label %12, label %13

12:                                               ; preds = %5
  tail call void @llvm.memcpy.p0.p0.i64(ptr noundef nonnull align 8 dereferenceable(160) %11, ptr noundef nonnull align 8 dereferenceable(160) %1, i64 160, i1 false)
  br label %14

13:                                               ; preds = %5
  tail call void @llvm.memcpy.p0.p0.i64(ptr noundef nonnull align 8 dereferenceable(256) %11, ptr noundef nonnull align 8 dereferenceable(256) %1, i64 256, i1 false)
  br label %14

14:                                               ; preds = %13, %12
  %15 = load i8, ptr %3, align 8, !tbaa !21
  %16 = icmp eq i8 %15, 1
  %17 = getelementptr inbounds nuw i8, ptr %8, i64 8
  br i1 %16, label %18, label %19

18:                                               ; preds = %14
  tail call void @llvm.memcpy.p0.p0.i64(ptr noundef nonnull align 8 dereferenceable(160) %17, ptr noundef nonnull align 8 dereferenceable(160) %3, i64 160, i1 false)
  br label %zend_hash_next_index_insert_ptr.exit

19:                                               ; preds = %14
  tail call void @llvm.memcpy.p0.p0.i64(ptr noundef nonnull align 8 dereferenceable(256) %17, ptr noundef nonnull align 8 dereferenceable(256) %3, i64 256, i1 false)
  br label %zend_hash_next_index_insert_ptr.exit

zend_hash_next_index_insert_ptr.exit:             ; preds = %19, %18
  %20 = getelementptr inbounds nuw i8, ptr %8, i64 520
  store ptr %2, ptr %20, align 8, !tbaa !21
  %21 = getelementptr inbounds nuw i8, ptr %8, i64 528
  store ptr %4, ptr %21, align 8, !tbaa !21
  call void @llvm.lifetime.start.p0(i64 16, ptr nonnull %6) #17
  store ptr %8, ptr %6, align 8, !tbaa !21
  %22 = getelementptr inbounds nuw i8, ptr %6, i64 8
  store i32 13, ptr %22, align 8, !tbaa !21
  %23 = call ptr @zend_hash_next_index_insert(ptr noundef %7, ptr noundef nonnull %6) #17
  call void @llvm.lifetime.end.p0(i64 16, ptr nonnull %6) #17
  ret void
}